; Function Attrs: nounwind uwtable
define dso_local void @GinInitBuffer(i32 noundef %0, i32 noundef %1) local_unnamed_addr #0 {
  %3 = icmp slt i32 %0, 0
  br i1 %3, label %4, label %10

4:                                                ; preds = %2
  %5 = load ptr, ptr @LocalBufferBlockPointers, align 8
  %6 = xor i32 %0, -1
  %7 = zext nneg i32 %6 to i64
  %8 = getelementptr inbounds nuw ptr, ptr %5, i64 %7
  %9 = load ptr, ptr %8, align 8
  br label %BufferGetPage.exit

10:                                               ; preds = %2
  %11 = load ptr, ptr @BufferBlocks, align 8
  %12 = add nsw i32 %0, -1
  %13 = sext i32 %12 to i64
  %14 = shl nsw i64 %13, 13
  %15 = getelementptr inbounds nuw i8, ptr %11, i64 %14
  br label %BufferGetPage.exit

BufferGetPage.exit:                               ; preds = %4, %10
  %.0.i.i = phi ptr [ %9, %4 ], [ %15, %10 ]
  tail call void @PageInit(ptr noundef %.0.i.i, i64 noundef 8192, i64 noundef 8) #7
  %16 = getelementptr inbounds nuw i8, ptr %.0.i.i, i64 16
  %17 = load i16, ptr %16, align 4
  %18 = zext i16 %17 to i64
  %19 = getelementptr inbounds nuw i8, ptr %.0.i.i, i64 %18
  %20 = trunc i32 %1 to i16
  %21 = getelementptr inbounds nuw i8, ptr %19, i64 6
  store i16 %20, ptr %21, align 2
  store i32 -1, ptr %19, align 4
  ret void
}